; Function Attrs: mustprogress nounwind uwtable
define hidden { ptr, i32 } @_ZN4llvm16DAGTypeLegalizer22SoftenFloatRes_BITCASTEPNS_6SDNodeE(ptr noundef nonnull align 8 dereferenceable(2512) %0, ptr nocapture noundef readonly %1) local_unnamed_addr #0 align 2 {
  %3 = getelementptr inbounds nuw i8, ptr %1, i64 40
  %4 = load ptr, ptr %3, align 8
  %.sroa.01.0.copyload = load ptr, ptr %4, align 8
  %.sroa.22.0..sroa_idx = getelementptr inbounds i8, ptr %4, i64 8
  %.sroa.22.0.copyload = load i32, ptr %.sroa.22.0..sroa_idx, align 8
  %5 = tail call { ptr, i32 } @_ZN4llvm16DAGTypeLegalizer19BitConvertToIntegerENS_7SDValueE(ptr noundef nonnull align 8 dereferenceable(2512) %0, ptr %.sroa.01.0.copyload, i32 %.sroa.22.0.copyload) #15
  ret { ptr, i32 } %5
}